target datalayout = "e-m:e-p270:32:32-p271:32:32-p272:64:64-i64:64-i128:128-f80:128-n8:16:32:64-S128"
target triple = "x86_64-unknown-linux-gnu"

%"class.node::quic::QuicError" = type { %"class.node::MemoryRetainer", %"class.std::__cxx11::basic_string", %struct.ngtcp2_connection_close_error, ptr }
%"class.node::MemoryRetainer" = type { ptr }
%"class.std::__cxx11::basic_string" = type { %"struct.std::__cxx11::basic_string<char>::_Alloc_hider", i64, %union.anon }
%"struct.std::__cxx11::basic_string<char>::_Alloc_hider" = type { ptr }
%union.anon = type { i64, [8 x i8] }
%struct.ngtcp2_connection_close_error = type { i32, i64, i64, ptr, i64 }
%"struct.node::quic::TransportParams::Options" = type <{ %"class.node::MemoryRetainer", %"class.std::optional", %"class.std::optional", i64, i64, i64, i64, i64, i64, i64, i64, i64, i64, i64, i8, [7 x i8] }>
%"class.std::optional" = type { %"struct.std::_Optional_base" }
%"struct.std::_Optional_base" = type { %"struct.std::_Optional_payload" }
%"struct.std::_Optional_payload" = type { %"struct.std::_Optional_payload.base", [7 x i8] }
%"struct.std::_Optional_payload.base" = type { %"struct.std::_Optional_payload_base.base" }
%"struct.std::_Optional_payload_base.base" = type <{ %"union.std::_Optional_payload_base<node::SocketAddress>::_Storage", i8 }>
%"union.std::_Optional_payload_base<node::SocketAddress>::_Storage" = type { %"class.node::SocketAddress" }
%"class.node::SocketAddress" = type { %"class.node::MemoryRetainer", %struct.sockaddr_storage }
%struct.sockaddr_storage = type { i16, [118 x i8], i64 }
%"class.v8::IndirectHandleBase" = type { ptr }
%"class.node::quic::TransportParams" = type { i32, %struct.ngtcp2_transport_params, ptr, %"class.node::quic::QuicError" }
%struct.ngtcp2_transport_params = type { %struct.ngtcp2_preferred_addr, %struct.ngtcp2_cid, %struct.ngtcp2_cid, %struct.ngtcp2_cid, i64, i64, i64, i64, i64, i64, i64, i64, i64, i64, i64, i64, i8, i8, i8, i8, [16 x i8], i8, %struct.ngtcp2_version_info, i8 }
%struct.ngtcp2_preferred_addr = type { %struct.ngtcp2_cid, i16, i16, [4 x i8], [16 x i8], i8, i8, [16 x i8] }
%struct.ngtcp2_cid = type { i64, [20 x i8] }
%struct.ngtcp2_version_info = type { i32, ptr, i64 }
%struct.ngtcp2_vec = type { ptr, i64 }
%"class.node::quic::Store" = type { %"class.node::MemoryRetainer", %"class.std::shared_ptr", i64, i64 }
%"class.std::shared_ptr" = type { %"class.std::__shared_ptr" }
%"class.std::__shared_ptr" = type { ptr, %"class.std::__shared_count" }
%"class.std::__shared_count" = type { ptr }
%"struct.std::__detail::_Hash_node_base" = type { ptr }
%"struct.std::__detail::_Prime_rehash_policy" = type { float, i64 }
%"class.node::quic::Session" = type { %"class.node::AsyncWrap", %"class.node::quic::SessionTicket::AppData::Source", %"class.node::AliasedStruct", %"class.node::AliasedStruct.323", %struct.ngtcp2_mem, %"struct.node::quic::Session::Config", %"class.std::unique_ptr.345", %"class.node::BaseObjectPtrImpl.353", %"class.node::quic::TLSContext", %"class.std::unique_ptr.373", %"class.node::SocketAddress", %"class.node::SocketAddress", %"class.std::unordered_map.381", %"class.node::TimerWrapHandle", i64, i64, %"class.node::quic::QuicError", %"class.node::BaseObjectPtrImpl.401", %"class.node::BaseObjectPtrImpl.403", %"class.node::BaseObjectPtrImpl.403" }
%"class.node::AsyncWrap" = type { %"class.node::BaseObject", i32, i8, double, double }
%"class.node::BaseObject" = type { %"class.node::MemoryRetainer", %"class.v8::Global", ptr, ptr }
%"class.v8::Global" = type { %"class.v8::PersistentBase" }
%"class.v8::PersistentBase" = type { %"class.v8::IndirectHandleBase" }
%"class.node::quic::SessionTicket::AppData::Source" = type { ptr }
%"class.node::AliasedStruct" = type { ptr, %"class.std::shared_ptr", ptr, %"class.v8::Global.321" }
%"class.v8::Global.321" = type { %"class.v8::PersistentBase.322" }
%"class.v8::PersistentBase.322" = type { %"class.v8::IndirectHandleBase" }
%"class.node::AliasedStruct.323" = type { ptr, %"class.std::shared_ptr", ptr, %"class.v8::Global.321" }
%struct.ngtcp2_mem = type { ptr, ptr, ptr, ptr, ptr }
%"struct.node::quic::Session::Config" = type { %"class.node::MemoryRetainer", i32, [4 x i8], %"struct.node::quic::Session::Options", i32, %"class.node::SocketAddress", %"class.node::SocketAddress", %"class.node::quic::CID", %"class.node::quic::CID", %"class.node::quic::CID", %"class.node::quic::CID", %"class.node::quic::CID", %"class.std::optional.335", %struct.ngtcp2_settings }
%"struct.node::quic::Session::Options" = type <{ %"class.node::MemoryRetainer", i32, i32, i32, [4 x i8], %"struct.node::quic::TransportParams::Options", %"struct.node::quic::TLSContext::Options", %"struct.node::quic::Session::Application_Options", ptr, %"class.node::BaseObjectPtrImpl", i8, [7 x i8] }>
%"struct.node::quic::TLSContext::Options" = type { %"class.node::MemoryRetainer", %"class.std::__cxx11::basic_string", %"class.std::__cxx11::basic_string", i8, i8, i8, i8, i8, %"class.std::__cxx11::basic_string", %"class.std::__cxx11::basic_string", %"class.std::__cxx11::basic_string", %"class.std::vector.324", %"class.std::vector.329", %"class.std::vector.329", %"class.std::vector.329" }
%"class.std::vector.324" = type { %"struct.std::_Vector_base.325" }
%"struct.std::_Vector_base.325" = type { %"struct.std::_Vector_base<std::shared_ptr<node::crypto::KeyObjectData>, std::allocator<std::shared_ptr<node::crypto::KeyObjectData>>>::_Vector_impl" }
%"struct.std::_Vector_base<std::shared_ptr<node::crypto::KeyObjectData>, std::allocator<std::shared_ptr<node::crypto::KeyObjectData>>>::_Vector_impl" = type { %"struct.std::_Vector_base<std::shared_ptr<node::crypto::KeyObjectData>, std::allocator<std::shared_ptr<node::crypto::KeyObjectData>>>::_Vector_impl_data" }
%"struct.std::_Vector_base<std::shared_ptr<node::crypto::KeyObjectData>, std::allocator<std::shared_ptr<node::crypto::KeyObjectData>>>::_Vector_impl_data" = type { ptr, ptr, ptr }
%"class.std::vector.329" = type { %"struct.std::_Vector_base.330" }
%"struct.std::_Vector_base.330" = type { %"struct.std::_Vector_base<node::quic::Store, std::allocator<node::quic::Store>>::_Vector_impl" }
%"struct.std::_Vector_base<node::quic::Store, std::allocator<node::quic::Store>>::_Vector_impl" = type { %"struct.std::_Vector_base<node::quic::Store, std::allocator<node::quic::Store>>::_Vector_impl_data" }
%"struct.std::_Vector_base<node::quic::Store, std::allocator<node::quic::Store>>::_Vector_impl_data" = type { ptr, ptr, ptr }
%"struct.node::quic::Session::Application_Options" = type { %"class.node::MemoryRetainer", i64, i64, i64, i64, i64, i64 }
%"class.node::BaseObjectPtrImpl" = type { %union.anon.334 }
%union.anon.334 = type { ptr }
%"class.node::quic::CID" = type { %"class.node::MemoryRetainer", %struct.ngtcp2_cid, ptr }
%"class.std::optional.335" = type { %"struct.std::_Optional_base.336" }
%"struct.std::_Optional_base.336" = type { %"struct.std::_Optional_payload.338" }
%"struct.std::_Optional_payload.338" = type { %"struct.std::_Optional_payload.base.342", [7 x i8] }
%"struct.std::_Optional_payload.base.342" = type { %"struct.std::_Optional_payload_base.base.341" }
%"struct.std::_Optional_payload_base.base.341" = type <{ %"union.std::_Optional_payload_base<node::quic::SessionTicket>::_Storage", i8 }>
%"union.std::_Optional_payload_base<node::quic::SessionTicket>::_Storage" = type { %"class.node::quic::SessionTicket" }
%"class.node::quic::SessionTicket" = type { %"class.node::MemoryRetainer", %"class.node::quic::Store", %"class.node::quic::Store" }
%struct.ngtcp2_settings = type { %struct.ngtcp2_qlog_settings, i32, i64, i64, ptr, i64, %struct.ngtcp2_vec, %struct.ngtcp2_rand_ctx, i64, i64, i64, i32, i64, ptr, i64, ptr, i64, i32, i32 }
%struct.ngtcp2_qlog_settings = type { %struct.ngtcp2_cid, ptr }
%struct.ngtcp2_rand_ctx = type { ptr }
%"class.std::unique_ptr.345" = type { %"struct.std::__uniq_ptr_data.346" }
%"struct.std::__uniq_ptr_data.346" = type { %"class.std::__uniq_ptr_impl.347" }
%"class.std::__uniq_ptr_impl.347" = type { %"class.std::tuple.348" }
%"class.std::tuple.348" = type { %"struct.std::_Tuple_impl.349" }
%"struct.std::_Tuple_impl.349" = type { %"struct.std::_Head_base.352" }
%"struct.std::_Head_base.352" = type { ptr }
%"class.node::BaseObjectPtrImpl.353" = type { %union.anon.354 }
%union.anon.354 = type { ptr }
%"class.node::quic::TLSContext" = type <{ %"class.node::MemoryRetainer", %struct.ngtcp2_crypto_conn_ref, i32, [4 x i8], ptr, ptr, %"struct.node::quic::TLSContext::Options", %"class.node::BaseObjectPtrImpl.355", %"class.std::unique_ptr.357", %"class.std::unique_ptr.365", i8, i8, [6 x i8] }>
%struct.ngtcp2_crypto_conn_ref = type { ptr, ptr }
%"class.node::BaseObjectPtrImpl.355" = type { %union.anon.356 }
%union.anon.356 = type { ptr }
%"class.std::unique_ptr.357" = type { %"struct.std::__uniq_ptr_data.358" }
%"struct.std::__uniq_ptr_data.358" = type { %"class.std::__uniq_ptr_impl.359" }
%"class.std::__uniq_ptr_impl.359" = type { %"class.std::tuple.360" }
%"class.std::tuple.360" = type { %"struct.std::_Tuple_impl.361" }
%"struct.std::_Tuple_impl.361" = type { %"struct.std::_Head_base.364" }
%"struct.std::_Head_base.364" = type { ptr }
%"class.std::unique_ptr.365" = type { %"struct.std::__uniq_ptr_data.366" }
%"struct.std::__uniq_ptr_data.366" = type { %"class.std::__uniq_ptr_impl.367" }
%"class.std::__uniq_ptr_impl.367" = type { %"class.std::tuple.368" }
%"class.std::tuple.368" = type { %"struct.std::_Tuple_impl.369" }
%"struct.std::_Tuple_impl.369" = type { %"struct.std::_Head_base.372" }
%"struct.std::_Head_base.372" = type { ptr }
%"class.std::unique_ptr.373" = type { %"struct.std::__uniq_ptr_data.374" }
%"struct.std::__uniq_ptr_data.374" = type { %"class.std::__uniq_ptr_impl.375" }
%"class.std::__uniq_ptr_impl.375" = type { %"class.std::tuple.376" }
%"class.std::tuple.376" = type { %"struct.std::_Tuple_impl.377" }
%"struct.std::_Tuple_impl.377" = type { %"struct.std::_Head_base.380" }
%"struct.std::_Head_base.380" = type { ptr }
%"class.std::unordered_map.381" = type { %"class.std::_Hashtable.382" }
%"class.std::_Hashtable.382" = type { ptr, i64, %"struct.std::__detail::_Hash_node_base", i64, %"struct.std::__detail::_Prime_rehash_policy", ptr }
%"class.node::TimerWrapHandle" = type { %"class.node::MemoryRetainer", ptr }
%"class.node::BaseObjectPtrImpl.401" = type { %union.anon.402 }
%union.anon.402 = type { ptr }
%"class.node::BaseObjectPtrImpl.403" = type { %union.anon.404 }
%union.anon.404 = type { ptr }
%"class.node::quic::StatelessResetToken" = type { %"class.node::MemoryRetainer", ptr, [16 x i8] }

; Function Attrs: mustprogress nounwind uwtable
define linkonce_odr dso_local void @_ZN4node14MemoryRetainerD2Ev(ptr noundef nonnull align 8 dereferenceable(8) %this) unnamed_addr #4 comdat align 2 {
entry:
  %this.addr = alloca ptr, align 8
  store ptr %this, ptr %this.addr, align 8
  ret void
}

; Function Attrs: mustprogress nounwind uwtable
define linkonce_odr dso_local void @_ZN4node4quic19StatelessResetTokenD2Ev(ptr noundef nonnull align 8 dereferenceable(32) %this) unnamed_addr #4 comdat align 2 {
entry:
  %this.addr = alloca ptr, align 8
  store ptr %this, ptr %this.addr, align 8
  %this1 = load ptr, ptr %this.addr, align 8
  call void @_ZN4node14MemoryRetainerD2Ev(ptr noundef nonnull align 8 dereferenceable(8) %this1) #3
  ret void
}

; Function Attrs: mustprogress nounwind uwtable
define linkonce_odr dso_local void @_ZN4node4quic3CIDD2Ev(ptr noundef nonnull align 8 dereferenceable(48) %this) unnamed_addr #4 comdat align 2 {
entry:
  %this.addr = alloca ptr, align 8
  store ptr %this, ptr %this.addr, align 8
  %this1 = load ptr, ptr %this.addr, align 8
  call void @_ZN4node14MemoryRetainerD2Ev(ptr noundef nonnull align 8 dereferenceable(8) %this1) #3
  ret void
}

; Function Attrs: mustprogress nounwind uwtable
define dso_local void @_ZN4node4quic15TransportParams29GeneratePreferredAddressTokenEPNS0_7SessionE(ptr noundef nonnull align 8 dereferenceable(432) %this, ptr noundef %session) #4 align 2 {
entry:
  %this.addr = alloca ptr, align 8
  %session.addr = alloca ptr, align 8
  %ref.tmp = alloca %"class.node::quic::CID", align 8
  %endpoint = alloca ptr, align 8
  %ref.tmp7 = alloca %"class.node::quic::StatelessResetToken", align 8
  store ptr %this, ptr %this.addr, align 8
  store ptr %session, ptr %session.addr, align 8
  %this1 = load ptr, ptr %this.addr, align 8
  %params_ = getelementptr inbounds %"class.node::quic::TransportParams", ptr %this1, i32 0, i32 1
  %preferred_address_present = getelementptr inbounds %struct.ngtcp2_transport_params, ptr %params_, i32 0, i32 19
  %0 = load i8, ptr %preferred_address_present, align 1
  %tobool = icmp ne i8 %0, 0
  br i1 %tobool, label %if.then, label %if.end

if.then:                                          ; preds = %entry
  %1 = load ptr, ptr %session.addr, align 8
  call void @_ZNK4node4quic7Session7new_cidEm(ptr sret(%"class.node::quic::CID") align 8 %ref.tmp, ptr noundef nonnull align 8 dereferenceable(2616) %1, i64 noundef 20)
  %2 = load ptr, ptr %session.addr, align 8
  %config_ = getelementptr inbounds %"class.node::quic::Session", ptr %2, i32 0, i32 5
  %preferred_address_cid = getelementptr inbounds %"struct.node::quic::Session::Config", ptr %config_, i32 0, i32 11
  %call = call noundef nonnull align 8 dereferenceable(48) ptr @_ZN4node4quic3CIDaSERKS1_(ptr noundef nonnull align 8 dereferenceable(48) %preferred_address_cid, ptr noundef nonnull align 8 dereferenceable(48) %ref.tmp)
  call void @_ZN4node4quic3CIDD2Ev(ptr noundef nonnull align 8 dereferenceable(48) %ref.tmp) #3
  %3 = load ptr, ptr %session.addr, align 8
  %config_2 = getelementptr inbounds %"class.node::quic::Session", ptr %3, i32 0, i32 5
  %preferred_address_cid3 = getelementptr inbounds %"struct.node::quic::Session::Config", ptr %config_2, i32 0, i32 11
  %call4 = call noundef nonnull align 8 dereferenceable(32) ptr @_ZNK4node4quic3CIDcvRK10ngtcp2_cidEv(ptr noundef nonnull align 8 dereferenceable(48) %preferred_address_cid3)
  %params_5 = getelementptr inbounds %"class.node::quic::TransportParams", ptr %this1, i32 0, i32 1
  %preferred_address = getelementptr inbounds %struct.ngtcp2_transport_params, ptr %params_5, i32 0, i32 0
  %cid = getelementptr inbounds %struct.ngtcp2_preferred_addr, ptr %preferred_address, i32 0, i32 0
  call void @llvm.memcpy.p0.p0.i64(ptr align 8 %cid, ptr align 8 %call4, i64 32, i1 false)
  %4 = load ptr, ptr %session.addr, align 8
  %call6 = call noundef nonnull align 8 dereferenceable(1520) ptr @_ZNK4node4quic7Session8endpointEv(ptr noundef nonnull align 8 dereferenceable(2616) %4)
  store ptr %call6, ptr %endpoint, align 8
  %5 = load ptr, ptr %endpoint, align 8
  %6 = load ptr, ptr %endpoint, align 8
  %params_8 = getelementptr inbounds %"class.node::quic::TransportParams", ptr %this1, i32 0, i32 1
  %preferred_address9 = getelementptr inbounds %struct.ngtcp2_transport_params, ptr %params_8, i32 0, i32 0
  %stateless_reset_token = getelementptr inbounds %struct.ngtcp2_preferred_addr, ptr %preferred_address9, i32 0, i32 7
  %arraydecay = getelementptr inbounds [16 x i8], ptr %stateless_reset_token, i64 0, i64 0
  %7 = load ptr, ptr %session.addr, align 8
  %config_10 = getelementptr inbounds %"class.node::quic::Session", ptr %7, i32 0, i32 5
  %preferred_address_cid11 = getelementptr inbounds %"struct.node::quic::Session::Config", ptr %config_10, i32 0, i32 11
  call void @_ZNK4node4quic8Endpoint30GenerateNewStatelessResetTokenEPhRKNS0_3CIDE(ptr sret(%"class.node::quic::StatelessResetToken") align 8 %ref.tmp7, ptr noundef nonnull align 8 dereferenceable(1520) %6, ptr noundef %arraydecay, ptr noundef nonnull align 8 dereferenceable(48) %preferred_address_cid11)
  %8 = load ptr, ptr %session.addr, align 8
  call void @_ZN4node4quic8Endpoint28AssociateStatelessResetTokenERKNS0_19StatelessResetTokenEPNS0_7SessionE(ptr noundef nonnull align 8 dereferenceable(1520) %5, ptr noundef nonnull align 8 dereferenceable(32) %ref.tmp7, ptr noundef %8)
  call void @_ZN4node4quic19StatelessResetTokenD2Ev(ptr noundef nonnull align 8 dereferenceable(32) %ref.tmp7) #3
  br label %if.end

if.end:                                           ; preds = %if.then, %entry
  ret void
}