; Function Attrs: mustprogress nounwind uwtable
define dso_local void @_ZN4node4quic15TransportParams29GeneratePreferredAddressTokenEPNS0_7SessionE(ptr noundef nonnull align 8 dereferenceable(432) %this, ptr noundef %session) local_unnamed_addr #3 align 2 {
entry:
  %ref.tmp = alloca %"class.node::quic::CID", align 8
  %ref.tmp7 = alloca %"class.node::quic::StatelessResetToken", align 8
  %preferred_address_present = getelementptr inbounds i8, ptr %this, i64 283
  %0 = load i8, ptr %preferred_address_present, align 1
  %tobool.not = icmp eq i8 %0, 0
  br i1 %tobool.not, label %if.end, label %if.then

if.then:                                          ; preds = %entry
  %params_ = getelementptr inbounds i8, ptr %this, i64 8
  call void @_ZNK4node4quic7Session7new_cidEm(ptr nonnull sret(%"class.node::quic::CID") align 8 %ref.tmp, ptr noundef nonnull align 8 dereferenceable(2616) %session, i64 noundef 20) #19
  %preferred_address_cid = getelementptr inbounds i8, ptr %session, i64 1440
  %call = call noundef nonnull align 8 dereferenceable(48) ptr @_ZN4node4quic3CIDaSERKS1_(ptr noundef nonnull align 8 dereferenceable(48) %preferred_address_cid, ptr noundef nonnull align 8 dereferenceable(48) %ref.tmp) #19
  %call4 = call noundef nonnull align 8 dereferenceable(32) ptr @_ZNK4node4quic3CIDcvRK10ngtcp2_cidEv(ptr noundef nonnull align 8 dereferenceable(48) %preferred_address_cid) #19
  call void @llvm.memcpy.p0.p0.i64(ptr noundef nonnull align 8 dereferenceable(32) %params_, ptr noundef nonnull align 8 dereferenceable(32) %call4, i64 32, i1 false)
  %call6 = call noundef nonnull align 8 dereferenceable(1520) ptr @_ZNK4node4quic7Session8endpointEv(ptr noundef nonnull align 8 dereferenceable(2616) %session) #19
  %stateless_reset_token = getelementptr inbounds i8, ptr %this, i64 66
  call void @_ZNK4node4quic8Endpoint30GenerateNewStatelessResetTokenEPhRKNS0_3CIDE(ptr nonnull sret(%"class.node::quic::StatelessResetToken") align 8 %ref.tmp7, ptr noundef nonnull align 8 dereferenceable(1520) %call6, ptr noundef nonnull %stateless_reset_token, ptr noundef nonnull align 8 dereferenceable(48) %preferred_address_cid) #19
  call void @_ZN4node4quic8Endpoint28AssociateStatelessResetTokenERKNS0_19StatelessResetTokenEPNS0_7SessionE(ptr noundef nonnull align 8 dereferenceable(1520) %call6, ptr noundef nonnull align 8 dereferenceable(32) %ref.tmp7, ptr noundef nonnull %session) #19
  br label %if.end

if.end:                                           ; preds = %if.then, %entry
  ret void
}